; Function Attrs: nounwind uwtable
define hidden void @je_arena_postfork_parent(ptr noundef %0, ptr noundef %1) local_unnamed_addr #0 {
  br label %.preheader

.preheader:                                       ; preds = %2, %._crit_edge
  %indvars.iv23 = phi i64 [ 0, %2 ], [ %indvars.iv.next24, %._crit_edge ]
  %3 = getelementptr inbounds nuw [36 x %struct.bin_info_s], ptr @je_bin_infos, i64 0, i64 %indvars.iv23, i32 3
  %4 = load i32, ptr %3, align 4, !tbaa !107
  %.not = icmp eq i32 %4, 0
  br i1 %.not, label %._crit_edge, label %.lr.ph

.lr.ph:                                           ; preds = %.preheader
  %5 = getelementptr inbounds nuw [36 x i32], ptr @je_arena_bin_offsets, i64 0, i64 %indvars.iv23
  br label %12

6:                                                ; preds = %._crit_edge
  %7 = getelementptr inbounds nuw i8, ptr %1, i64 10552
  tail call void @je_malloc_mutex_postfork_parent(ptr noundef %0, ptr noundef nonnull %7) #18
  %8 = getelementptr inbounds nuw i8, ptr %1, i64 79024
  %9 = load ptr, ptr %8, align 16, !tbaa !13
  tail call void @je_base_postfork_parent(ptr noundef %0, ptr noundef %9) #18
  %10 = getelementptr inbounds nuw i8, ptr %1, i64 10664
  tail call void @je_pa_shard_postfork_parent(ptr noundef %0, ptr noundef nonnull %10) #18
  %11 = getelementptr inbounds nuw i8, ptr %1, i64 10424
  tail call void @je_malloc_mutex_postfork_parent(ptr noundef %0, ptr noundef nonnull %11) #18
  ret void

._crit_edge:                                      ; preds = %12, %.preheader
  %indvars.iv.next24 = add nuw nsw i64 %indvars.iv23, 1
  %exitcond.not = icmp eq i64 %indvars.iv.next24, 36
  br i1 %exitcond.not, label %6, label %.preheader, !llvm.loop !258

12:                                               ; preds = %.lr.ph, %12
  %indvars.iv = phi i64 [ 0, %.lr.ph ], [ %indvars.iv.next, %12 ]
  %13 = load i32, ptr %5, align 4, !tbaa !4
  %14 = zext i32 %13 to i64
  %15 = getelementptr inbounds nuw i8, ptr %1, i64 %14
  %16 = load i32, ptr @je_bin_info_nbatched_sizes, align 4, !tbaa !4
  %17 = zext i32 %16 to i64
  %18 = icmp samesign ult i64 %indvars.iv23, %17
  %19 = getelementptr inbounds nuw %struct.bin_with_batch_s, ptr %15, i64 %indvars.iv
  %20 = getelementptr inbounds nuw %struct.bin_s, ptr %15, i64 %indvars.iv
  %.0.i = select i1 %18, ptr %19, ptr %20
  tail call void @je_bin_postfork_parent(ptr noundef %0, ptr noundef %.0.i, i1 noundef zeroext %18) #18
  %indvars.iv.next = add nuw nsw i64 %indvars.iv, 1
  %21 = load i32, ptr %3, align 4, !tbaa !107
  %22 = zext i32 %21 to i64
  %23 = icmp samesign ult i64 %indvars.iv.next, %22
  br i1 %23, label %12, label %._crit_edge, !llvm.loop !259
}